; Function Attrs: mustprogress nofree norecurse nosync nounwind willreturn memory(readwrite, inaccessiblemem: none) uwtable
define hidden void @_ZN3nla7emonics13unmerge_cellsERNS0_9head_tailES2_(ptr nocapture noundef nonnull readnone align 8 dereferenceable(216) %this, ptr noundef nonnull align 8 dereferenceable(16) %root, ptr noundef nonnull readonly align 8 dereferenceable(16) %other) local_unnamed_addr #5 align 2 {
entry:
  %cmp = icmp eq ptr %root, %other
  br i1 %cmp, label %if.end12, label %if.end

if.end:                                           ; preds = %entry
  %0 = load ptr, ptr %other, align 8
  %m_tail3 = getelementptr inbounds i8, ptr %other, i64 8
  %1 = load ptr, ptr %m_tail3, align 8
  %cmp4 = icmp eq ptr %0, null
  br i1 %cmp4, label %if.end12, label %if.else

if.else:                                          ; preds = %if.end
  %m_tail = getelementptr inbounds i8, ptr %root, i64 8
  %2 = load ptr, ptr %m_tail, align 8
  %cmp6 = icmp eq ptr %2, %1
  br i1 %cmp6, label %if.then7, label %if.else8

if.then7:                                         ; preds = %if.else
  tail call void @llvm.memset.p0.i64(ptr noundef nonnull align 8 dereferenceable(16) %root, i8 0, i64 16, i1 false)
  br label %if.end12

if.else8:                                         ; preds = %if.else
  %3 = load ptr, ptr %1, align 8
  store ptr %3, ptr %root, align 8
  store ptr %3, ptr %2, align 8
  store ptr %0, ptr %1, align 8
  br label %if.end12

if.end12:                                         ; preds = %if.then7, %if.else8, %if.end, %entry
  ret void
}